target datalayout = "e-m:e-p270:32:32-p271:32:32-p272:64:64-i64:64-i128:128-f80:128-n8:16:32:64-S128"
target triple = "x86_64-pc-linux-gnu"

%struct.SDL_Properties = type { ptr, ptr }

@SDL_properties = internal global ptr null, align 8

; Function Attrs: nounwind uwtable
define internal void @SDL_FreeProperties(ptr noundef %0) #0 {
  %2 = alloca ptr, align 8
  store ptr %0, ptr %2, align 8
  %3 = load ptr, ptr %2, align 8
  %4 = icmp ne ptr %3, null
  br i1 %4, label %5, label %13

5:                                                ; preds = %1
  %6 = load ptr, ptr %2, align 8
  %7 = getelementptr inbounds nuw %struct.SDL_Properties, ptr %6, i32 0, i32 0
  %8 = load ptr, ptr %7, align 8
  call void @SDL_DestroyHashTable(ptr noundef %8)
  %9 = load ptr, ptr %2, align 8
  %10 = getelementptr inbounds nuw %struct.SDL_Properties, ptr %9, i32 0, i32 1
  %11 = load ptr, ptr %10, align 8
  call void @SDL_DestroyMutex_REAL(ptr noundef %11)
  %12 = load ptr, ptr %2, align 8
  call void @SDL_free_REAL(ptr noundef %12)
  br label %13

13:                                               ; preds = %5, %1
  ret void
}

; Function Attrs: nounwind uwtable
define hidden void @SDL_DestroyProperties_REAL(i32 noundef %0) #0 {
  %2 = alloca i32, align 4
  %3 = alloca ptr, align 8
  store i32 %0, ptr %2, align 4
  %4 = load i32, ptr %2, align 4
  %5 = icmp ne i32 %4, 0
  br i1 %5, label %6, label %20

6:                                                ; preds = %1
  call void @llvm.lifetime.start.p0(i64 8, ptr %3) #6
  store ptr null, ptr %3, align 8
  %7 = load ptr, ptr @SDL_properties, align 8
  %8 = load i32, ptr %2, align 4
  %9 = zext i32 %8 to i64
  %10 = inttoptr i64 %9 to ptr
  %11 = call zeroext i1 @SDL_FindInHashTable(ptr noundef %7, ptr noundef %10, ptr noundef %3)
  br i1 %11, label %12, label %19

12:                                               ; preds = %6
  %13 = load ptr, ptr %3, align 8
  call void @SDL_FreeProperties(ptr noundef %13)
  %14 = load ptr, ptr @SDL_properties, align 8
  %15 = load i32, ptr %2, align 4
  %16 = zext i32 %15 to i64
  %17 = inttoptr i64 %16 to ptr
  %18 = call zeroext i1 @SDL_RemoveFromHashTable(ptr noundef %14, ptr noundef %17)
  br label %19

19:                                               ; preds = %12, %6
  call void @llvm.lifetime.end.p0(i64 8, ptr %3) #6
  br label %20

20:                                               ; preds = %19, %1
  ret void
}