; Function Attrs: nounwind uwtable
define hidden void @SDL_DestroyProperties_REAL(i32 noundef %0) local_unnamed_addr #0 {
  %2 = alloca ptr, align 8
  %.not = icmp eq i32 %0, 0
  br i1 %.not, label %17, label %3

3:                                                ; preds = %1
  call void @llvm.lifetime.start.p0(i64 8, ptr nonnull %2) #6
  store ptr null, ptr %2, align 8
  %4 = load ptr, ptr @SDL_properties, align 8
  %5 = zext i32 %0 to i64
  %6 = inttoptr i64 %5 to ptr
  %7 = call zeroext i1 @SDL_FindInHashTable(ptr noundef %4, ptr noundef nonnull %6, ptr noundef nonnull %2) #6
  br i1 %7, label %8, label %16

8:                                                ; preds = %3
  %9 = load ptr, ptr %2, align 8
  %.not.i = icmp eq ptr %9, null
  br i1 %.not.i, label %SDL_FreeProperties.exit, label %10

10:                                               ; preds = %8
  %11 = load ptr, ptr %9, align 8
  call void @SDL_DestroyHashTable(ptr noundef %11) #6
  %12 = getelementptr inbounds nuw i8, ptr %9, i64 8
  %13 = load ptr, ptr %12, align 8
  call void @SDL_DestroyMutex_REAL(ptr noundef %13) #6
  call void @SDL_free_REAL(ptr noundef nonnull %9) #6
  br label %SDL_FreeProperties.exit

SDL_FreeProperties.exit:                          ; preds = %8, %10
  %14 = load ptr, ptr @SDL_properties, align 8
  %15 = call zeroext i1 @SDL_RemoveFromHashTable(ptr noundef %14, ptr noundef nonnull %6) #6
  br label %16

16:                                               ; preds = %SDL_FreeProperties.exit, %3
  call void @llvm.lifetime.end.p0(i64 8, ptr nonnull %2) #6
  br label %17

17:                                               ; preds = %16, %1
  ret void
}